; Function Attrs: mustprogress nounwind uwtable
define internal fastcc void @_ZN12_GLOBAL__N_116AtomicExpandImpl20expandAtomicOpToLLSCEPN4llvm11InstructionEPNS1_4TypeEPNS1_5ValueENS1_5AlignENS1_14AtomicOrderingENS1_12function_refIFS7_RNS1_13IRBuilderBaseES7_EEE(ptr nocapture noundef nonnull readonly align 8 dereferenceable(16) %0, ptr noundef nonnull %1, ptr noundef %2, ptr noundef %3, i32 noundef %4, ptr nocapture noundef readonly byval(%"class.llvm::function_ref.47") align 8 %5) unnamed_addr #0 align 2 {
  %7 = alloca %"struct.(anonymous namespace)::ReplacementIRBuilder", align 8
  %8 = getelementptr inbounds nuw i8, ptr %0, i64 8
  %9 = load ptr, ptr %8, align 8
  call fastcc void @_ZN12_GLOBAL__N_120ReplacementIRBuilderC2EPN4llvm11InstructionERKNS1_10DataLayoutE(ptr noundef nonnull align 8 dereferenceable(264) %7, ptr noundef %1, ptr noundef nonnull align 8 dereferenceable(512) %9)
  %.sroa.0.0.copyload = load ptr, ptr %5, align 8
  %.sroa.2.0..sroa_idx = getelementptr inbounds i8, ptr %5, i64 8
  %.sroa.2.0.copyload = load i64, ptr %.sroa.2.0..sroa_idx, align 8
  %10 = call fastcc noundef ptr @_ZN12_GLOBAL__N_116AtomicExpandImpl17insertRMWLLSCLoopERN4llvm13IRBuilderBaseEPNS1_4TypeEPNS1_5ValueENS1_5AlignENS1_14AtomicOrderingENS1_12function_refIFS7_S3_S7_EEE(ptr noundef nonnull align 8 dereferenceable(16) %0, ptr noundef nonnull align 8 dereferenceable(128) %7, ptr noundef %2, ptr noundef %3, i32 noundef %4, ptr %.sroa.0.0.copyload, i64 %.sroa.2.0.copyload)
  call void @_ZN4llvm5Value18replaceAllUsesWithEPS0_(ptr noundef nonnull align 8 dereferenceable(24) %1, ptr noundef %10) #16
  %11 = call { ptr, i64 } @_ZN4llvm11Instruction15eraseFromParentEv(ptr noundef nonnull align 8 dereferenceable(72) %1) #16
  %12 = getelementptr inbounds nuw i8, ptr %7, i64 216
  call void @_ZN4llvm25IRBuilderCallbackInserterD1Ev(ptr noundef nonnull align 8 dereferenceable(40) %12) #16
  %13 = getelementptr inbounds nuw i8, ptr %7, i64 128
  %14 = getelementptr inbounds i8, ptr %7, i64 136
  call void @_ZN4llvm15IRBuilderFolderD2Ev(ptr noundef nonnull align 8 dereferenceable(8) %14) #16
  call void @_ZN4llvm15IRBuilderFolderD2Ev(ptr noundef nonnull align 8 dereferenceable(8) %13) #16
  %15 = call noundef i64 @_ZNK4llvm15SmallVectorBaseIjE4sizeEv(ptr noundef nonnull align 8 dereferenceable(16) %7) #16
  %16 = load ptr, ptr %7, align 8
  %17 = getelementptr inbounds i8, ptr %7, i64 16
  %18 = icmp eq ptr %16, %17
  br i1 %18, label %_ZN12_GLOBAL__N_120ReplacementIRBuilderD2Ev.exit, label %19

19:                                               ; preds = %6
  call void @free(ptr noundef %16) #16
  br label %_ZN12_GLOBAL__N_120ReplacementIRBuilderD2Ev.exit

_ZN12_GLOBAL__N_120ReplacementIRBuilderD2Ev.exit: ; preds = %6, %19
  ret void
}